Certificate Request:
    Data:
        Version: 1 (0x0)
        Subject: C = RS, ST = Serbia, L = Nis, O = zlatnaspirala, OU = zlatnaspirala, CN = localhost, emailAddress = zlatnaspirala@gmail.com
        Subject Public Key Info:
            Public Key Algorithm: rsaEncryption
                RSA Public-Key: (2048 bit)
                Modulus:
                    00:a5:1f:83:e8:3d:87:e2:14:2e:5a:88:23:9c:cd:
                    0f:8e:f8:a6:3e:86:fd:c4:9c:e7:a7:e3:5e:a6:3b:
                    02:f9:7b:77:7d:e5:a9:23:53:26:1d:45:d8:fb:5d:
                    6a:51:8b:d6:20:b1:46:f9:89:17:34:a7:b1:b1:24:
                    ae:39:c7:08:0d:48:3c:c9:32:92:5a:c0:3b:6c:45:
                    78:73:39:3a:b4:da:6d:12:22:39:c7:c7:43:38:74:
                    af:9c:c3:e9:79:1c:94:35:c5:dc:7f:b1:24:a2:ea:
                    17:b6:da:d7:67:25:22:9e:1b:c4:42:5b:e5:2f:d5:
                    49:6b:71:e0:b2:f1:d6:f7:3d:c8:cb:5c:24:37:87:
                    26:f8:1b:e4:cd:0f:db:53:10:6b:df:19:da:08:09:
                    9d:ac:cb:6c:4e:e0:18:c8:c8:35:8e:5f:9b:9d:92:
                    28:44:99:c6:74:0e:fe:3e:05:dd:d5:63:9e:90:57:
                    79:5e:86:0d:e1:a8:b8:ae:50:8e:39:86:f1:cd:e8:
                    64:cc:03:ba:50:cb:6a:3b:6b:59:cd:e9:fb:97:6a:
                    15:b8:11:41:8d:74:1c:d5:f0:8f:43:44:dd:c5:86:
                    5d:79:88:64:66:c5:55:11:f0:e6:8d:f3:06:81:d7:
                    d1:13:6d:3f:06:3e:97:25:a1:80:92:37:bc:c5:3e:
                    a7:33
                Exponent: 65537 (0x10001)
        Attributes:
            a0:00
    Signature Algorithm: sha256WithRSAEncryption
         5e:19:53:bc:1e:cd:c2:5c:39:f5:9f:78:7d:a9:5f:71:a5:a6:
         53:a1:36:aa:ee:50:0a:c5:4f:73:37:7d:e3:b1:46:31:20:c1:
         a1:e7:6d:7c:8c:b4:68:57:88:c5:f2:f5:c5:5c:d5:5b:67:6c:
         17:10:e3:09:3b:48:a6:c4:af:b1:c2:dc:54:8a:3c:33:39:53:
         8f:f9:06:22:6e:d0:90:0a:19:b9:f2:b6:de:31:23:34:46:e7:
         8f:df:44:6c:3e:93:e9:d8:75:a9:03:ac:70:0d:59:27:8b:f2:
         2a:48:c8:ac:7f:0a:4c:76:75:c3:94:07:7b:b9:e6:2c:d5:36:
         8e:91:93:b7:62:a8:82:50:f7:12:64:a0:ef:13:f1:e4:71:6f:
         73:7e:c3:d8:51:f3:8b:40:54:fd:2f:30:b8:d0:21:b1:10:8e:
         8f:bd:47:7f:84:aa:a1:d9:31:ff:cf:d1:0b:65:cd:c0:39:73:
         11:f2:c2:73:fc:6f:29:9f:4f:22:8f:f8:34:e8:cd:96:13:3c:
         38:5c:34:f6:67:88:5a:ce:78:8c:cd:3e:56:7f:05:4e:81:a3:
         ec:b3:64:bf:d6:ed:4a:0d:15:65:d7:f5:6d:df:8c:f4:31:25:
         93:e5:29:f2:1f:48:62:b0:87:49:9f:d4:bb:81:88:bc:63:53:
         94:28:18:3b
-----BEGIN CERTIFICATE REQUEST-----
MIIC3jCCAcYCAQAwgZgxCzAJBgNVBAYTAlJTMQ8wDQYDVQQIDAZTZXJiaWExDDAK
BgNVBAcMA05pczEWMBQGA1UECgwNemxhdG5hc3BpcmFsYTEWMBQGA1UECwwNemxh
dG5hc3BpcmFsYTESMBAGA1UEAwwJbG9jYWxob3N0MSYwJAYJKoZIhvcNAQkBFhd6
bGF0bmFzcGlyYWxhQGdtYWlsLmNvbTCCASIwDQYJKoZIhvcNAQEBBQADggEPADCC
AQoCggEBAKUfg+g9h+IULlqII5zND474pj6G/cSc56fjXqY7Avl7d33lqSNTJh1F
2PtdalGL1iCxRvmJFzSnsbEkrjnHCA1IPMkyklrAO2xFeHM5OrTabRIiOcfHQzh0
r5zD6XkclDXF3H+xJKLqF7ba12clIp4bxEJb5S/VSWtx4LLx1vc9yMtcJDeHJvgb
5M0P21MQa98Z2ggJnazLbE7gGMjINY5fm52SKESZxnQO/j4F3dVjnpBXeV6GDeGo
uK5QjjmG8c3oZMwDulDLajtrWc3p+5dqFbgRQY10HNXwj0NE3cWGXXmIZGbFVRHw
5o3zBoHX0RNtPwY+lyWhgJI3vMU+pzMCAwEAAaAAMA0GCSqGSIb3DQEBCwUAA4IB
AQBeGVO8Hs3CXDn1n3h9qV9xpaZToTaq7lAKxU9zN33jsUYxIMGh5218jLRoV4jF
8vXFXNVbZ2wXEOMJO0imxK+xwtxUijwzOVOP+QYibtCQChm58rbeMSM0RueP30Rs
PpPp2HWpA6xwDVkni/IqSMisfwpMdnXDlAd7ueYs1TaOkZO3YqiCUPcSZKDvE/Hk
cW9zfsPYUfOLQFT9LzC40CGxEI6PvUd/hKqh2TH/z9ELZc3AOXMR8sJz/G8pn08i
j/g06M2WEzw4XDT2Z4hazniMzT5WfwVOgaPss2S/1u1KDRVl1/Vt34z0MSWT5Sny
H0hisIdJn9S7gYi8Y1OUKBg7
-----END CERTIFICATE REQUEST-----
